; ModuleID = '21/186.c'
source_filename = "21/186.c"
target datalayout = "e-m:e-p270:32:32-p271:32:32-p272:64:64-i64:64-f80:128-n8:16:32:64-S128"
target triple = "x86_64-pc-linux-gnu"

@.str = private unnamed_addr constant [3 x i8] c"%d\00", align 1
@.str.1 = private unnamed_addr constant [4 x i8] c"%d,\00", align 1

; Function Attrs: noinline nounwind uwtable
define dso_local i32 @main() #0 {
  %1 = alloca i32, align 4
  %2 = alloca i32, align 4
  %3 = alloca [300 x i32], align 16
  %4 = alloca i32, align 4
  %5 = alloca i32, align 4
  %6 = alloca i32, align 4
  %7 = alloca float, align 4
  %8 = alloca float, align 4
  %9 = alloca [300 x float], align 16
  %10 = alloca float, align 4
  store i32 0, i32* %1, align 4
  store i32 0, i32* %5, align 4
  store float 0.000000e+00, float* %7, align 4
  store float 0.000000e+00, float* %10, align 4
  %11 = call i32 (i8*, ...) @__isoc99_scanf(i8* getelementptr inbounds ([3 x i8], [3 x i8]* @.str, i64 0, i64 0), i32* %2)
  store i32 0, i32* %4, align 4
  br label %12

12:                                               ; preds = %28, %0
  %13 = load i32, i32* %4, align 4
  %14 = load i32, i32* %2, align 4
  %15 = icmp slt i32 %13, %14
  br i1 %15, label %16, label %31

16:                                               ; preds = %12
  %17 = load i32, i32* %4, align 4
  %18 = sext i32 %17 to i64
  %19 = getelementptr inbounds [300 x i32], [300 x i32]* %3, i64 0, i64 %18
  %20 = call i32 (i8*, ...) @__isoc99_scanf(i8* getelementptr inbounds ([3 x i8], [3 x i8]* @.str, i64 0, i64 0), i32* %19)
  %21 = load i32, i32* %4, align 4
  %22 = sext i32 %21 to i64
  %23 = getelementptr inbounds [300 x i32], [300 x i32]* %3, i64 0, i64 %22
  %24 = load i32, i32* %23, align 4
  %25 = sitofp i32 %24 to float
  %26 = load float, float* %7, align 4
  %27 = fadd float %26, %25
  store float %27, float* %7, align 4
  br label %28

28:                                               ; preds = %16
  %29 = load i32, i32* %4, align 4
  %30 = add nsw i32 %29, 1
  store i32 %30, i32* %4, align 4
  br label %12

31:                                               ; preds = %12
  %32 = load float, float* %7, align 4
  %33 = load i32, i32* %2, align 4
  %34 = sitofp i32 %33 to float
  %35 = fdiv float %32, %34
  store float %35, float* %8, align 4
  store i32 0, i32* %4, align 4
  br label %36

36:                                               ; preds = %66, %31
  %37 = load i32, i32* %4, align 4
  %38 = load i32, i32* %2, align 4
  %39 = icmp slt i32 %37, %38
  br i1 %39, label %40, label %69

40:                                               ; preds = %36
  %41 = load i32, i32* %4, align 4
  %42 = sext i32 %41 to i64
  %43 = getelementptr inbounds [300 x i32], [300 x i32]* %3, i64 0, i64 %42
  %44 = load i32, i32* %43, align 4
  %45 = sitofp i32 %44 to float
  %46 = load float, float* %8, align 4
  %47 = fsub float %45, %46
  %48 = fpext float %47 to double
  %49 = call double @llvm.fabs.f64(double %48)
  %50 = fptrunc double %49 to float
  %51 = load i32, i32* %4, align 4
  %52 = sext i32 %51 to i64
  %53 = getelementptr inbounds [300 x float], [300 x float]* %9, i64 0, i64 %52
  store float %50, float* %53, align 4
  %54 = load i32, i32* %4, align 4
  %55 = sext i32 %54 to i64
  %56 = getelementptr inbounds [300 x float], [300 x float]* %9, i64 0, i64 %55
  %57 = load float, float* %56, align 4
  %58 = load float, float* %10, align 4
  %59 = fcmp ogt float %57, %58
  br i1 %59, label %60, label %65

60:                                               ; preds = %40
  %61 = load i32, i32* %4, align 4
  %62 = sext i32 %61 to i64
  %63 = getelementptr inbounds [300 x float], [300 x float]* %9, i64 0, i64 %62
  %64 = load float, float* %63, align 4
  store float %64, float* %10, align 4
  br label %65

65:                                               ; preds = %60, %40
  br label %66

66:                                               ; preds = %65
  %67 = load i32, i32* %4, align 4
  %68 = add nsw i32 %67, 1
  store i32 %68, i32* %4, align 4
  br label %36

69:                                               ; preds = %36
  store i32 0, i32* %4, align 4
  br label %70

70:                                               ; preds = %85, %69
  %71 = load i32, i32* %4, align 4
  %72 = load i32, i32* %2, align 4
  %73 = icmp slt i32 %71, %72
  br i1 %73, label %74, label %88

74:                                               ; preds = %70
  %75 = load i32, i32* %4, align 4
  %76 = sext i32 %75 to i64
  %77 = getelementptr inbounds [300 x float], [300 x float]* %9, i64 0, i64 %76
  %78 = load float, float* %77, align 4
  %79 = load float, float* %10, align 4
  %80 = fcmp oeq float %78, %79
  br i1 %80, label %81, label %84

81:                                               ; preds = %74
  %82 = load i32, i32* %5, align 4
  %83 = add nsw i32 %82, 1
  store i32 %83, i32* %5, align 4
  br label %84

84:                                               ; preds = %81, %74
  br label %85

85:                                               ; preds = %84
  %86 = load i32, i32* %4, align 4
  %87 = add nsw i32 %86, 1
  store i32 %87, i32* %4, align 4
  br label %70

88:                                               ; preds = %70
  %89 = load i32, i32* %5, align 4
  %90 = icmp eq i32 %89, 1
  br i1 %90, label %91, label %114

91:                                               ; preds = %88
  store i32 0, i32* %4, align 4
  br label %92

92:                                               ; preds = %110, %91
  %93 = load i32, i32* %4, align 4
  %94 = load i32, i32* %2, align 4
  %95 = icmp slt i32 %93, %94
  br i1 %95, label %96, label %113

96:                                               ; preds = %92
  %97 = load i32, i32* %4, align 4
  %98 = sext i32 %97 to i64
  %99 = getelementptr inbounds [300 x float], [300 x float]* %9, i64 0, i64 %98
  %100 = load float, float* %99, align 4
  %101 = load float, float* %10, align 4
  %102 = fcmp oeq float %100, %101
  br i1 %102, label %103, label %109

103:                                              ; preds = %96
  %104 = load i32, i32* %4, align 4
  %105 = sext i32 %104 to i64
  %106 = getelementptr inbounds [300 x i32], [300 x i32]* %3, i64 0, i64 %105
  %107 = load i32, i32* %106, align 4
  %108 = call i32 (i8*, ...) @printf(i8* getelementptr inbounds ([3 x i8], [3 x i8]* @.str, i64 0, i64 0), i32 %107)
  br label %109

109:                                              ; preds = %103, %96
  br label %110

110:                                              ; preds = %109
  %111 = load i32, i32* %4, align 4
  %112 = add nsw i32 %111, 1
  store i32 %112, i32* %4, align 4
  br label %92

113:                                              ; preds = %92
  br label %114

114:                                              ; preds = %113, %88
  %115 = load i32, i32* %5, align 4
  %116 = icmp eq i32 %115, 2
  br i1 %116, label %117, label %169

117:                                              ; preds = %114
  store i32 0, i32* %4, align 4
  br label %118

118:                                              ; preds = %165, %117
  %119 = load i32, i32* %4, align 4
  %120 = load i32, i32* %2, align 4
  %121 = icmp slt i32 %119, %120
  br i1 %121, label %122, label %168

122:                                              ; preds = %118
  %123 = load i32, i32* %4, align 4
  %124 = sext i32 %123 to i64
  %125 = getelementptr inbounds [300 x float], [300 x float]* %9, i64 0, i64 %124
  %126 = load float, float* %125, align 4
  %127 = load float, float* %10, align 4
  %128 = fcmp oeq float %126, %127
  br i1 %128, label %129, label %143

129:                                              ; preds = %122
  %130 = load i32, i32* %4, align 4
  %131 = sext i32 %130 to i64
  %132 = getelementptr inbounds [300 x i32], [300 x i32]* %3, i64 0, i64 %131
  %133 = load i32, i32* %132, align 4
  %134 = sitofp i32 %133 to float
  %135 = load float, float* %8, align 4
  %136 = fcmp olt float %134, %135
  br i1 %136, label %137, label %143

137:                                              ; preds = %129
  %138 = load i32, i32* %4, align 4
  %139 = sext i32 %138 to i64
  %140 = getelementptr inbounds [300 x i32], [300 x i32]* %3, i64 0, i64 %139
  %141 = load i32, i32* %140, align 4
  %142 = call i32 (i8*, ...) @printf(i8* getelementptr inbounds ([4 x i8], [4 x i8]* @.str.1, i64 0, i64 0), i32 %141)
  br label %143

143:                                              ; preds = %137, %129, %122
  %144 = load i32, i32* %4, align 4
  %145 = sext i32 %144 to i64
  %146 = getelementptr inbounds [300 x float], [300 x float]* %9, i64 0, i64 %145
  %147 = load float, float* %146, align 4
  %148 = load float, float* %10, align 4
  %149 = fcmp oeq float %147, %148
  br i1 %149, label %150, label %164

150:                                              ; preds = %143
  %151 = load i32, i32* %4, align 4
  %152 = sext i32 %151 to i64
  %153 = getelementptr inbounds [300 x i32], [300 x i32]* %3, i64 0, i64 %152
  %154 = load i32, i32* %153, align 4
  %155 = sitofp i32 %154 to float
  %156 = load float, float* %8, align 4
  %157 = fcmp ogt float %155, %156
  br i1 %157, label %158, label %164

158:                                              ; preds = %150
  %159 = load i32, i32* %4, align 4
  %160 = sext i32 %159 to i64
  %161 = getelementptr inbounds [300 x i32], [300 x i32]* %3, i64 0, i64 %160
  %162 = load i32, i32* %161, align 4
  %163 = call i32 (i8*, ...) @printf(i8* getelementptr inbounds ([3 x i8], [3 x i8]* @.str, i64 0, i64 0), i32 %162)
  br label %164

164:                                              ; preds = %158, %150, %143
  br label %165

165:                                              ; preds = %164
  %166 = load i32, i32* %4, align 4
  %167 = add nsw i32 %166, 1
  store i32 %167, i32* %4, align 4
  br label %118

168:                                              ; preds = %118
  br label %169

169:                                              ; preds = %168, %114
  ret i32 0
}

declare dso_local i32 @__isoc99_scanf(i8*, ...) #1

; Function Attrs: nounwind readnone speculatable willreturn
declare double @llvm.fabs.f64(double) #2

declare dso_local i32 @printf(i8*, ...) #1


!llvm.module.flags = !{!0}
!llvm.ident = !{!1}

!0 = !{i32 1, !"wchar_size", i32 4}
!1 = !{!"clang version 10.0.0-4ubuntu1 "}
